target datalayout = "e-m:e-p270:32:32-p271:32:32-p272:64:64-i64:64-i128:128-f80:128-n8:16:32:64-S128"
target triple = "x86_64-unknown-linux-gnu"

%"class.base::debug::GlobalActivityTracker" = type { %"class.std::unique_ptr", i64, %"class.base::ThreadLocalStorage::Slot", %"struct.std::atomic.13", %"class.base::debug::GlobalActivityTracker::ThreadSafeStack" }
%"class.std::unique_ptr" = type { %"struct.std::__uniq_ptr_data" }
%"struct.std::__uniq_ptr_data" = type { %"class.std::__uniq_ptr_impl" }
%"class.std::__uniq_ptr_impl" = type { %"class.std::tuple" }
%"class.std::tuple" = type { %"struct.std::_Tuple_impl" }
%"struct.std::_Tuple_impl" = type { %"struct.std::_Head_base.12" }
%"struct.std::_Head_base.12" = type { ptr }
%"class.base::ThreadLocalStorage::Slot" = type { %"struct.base::ThreadLocalStorage::StaticSlot" }
%"struct.base::ThreadLocalStorage::StaticSlot" = type { i32, i32 }
%"struct.std::atomic.13" = type { %"struct.std::__atomic_base.14" }
%"struct.std::__atomic_base.14" = type { i32 }
%"class.base::debug::GlobalActivityTracker::ThreadSafeStack" = type { i64, %"class.std::unique_ptr.15", i64, %"class.base::Lock" }
%"class.std::unique_ptr.15" = type { %"struct.std::__uniq_ptr_data.16" }
%"struct.std::__uniq_ptr_data.16" = type { %"class.std::__uniq_ptr_impl.17" }
%"class.std::__uniq_ptr_impl.17" = type { %"class.std::tuple.18" }
%"class.std::tuple.18" = type { %"struct.std::_Tuple_impl.19" }
%"struct.std::_Tuple_impl.19" = type { %"struct.std::_Head_base.22" }
%"struct.std::_Head_base.22" = type { ptr }
%"class.base::Lock" = type { %"class.base::internal::LockImpl" }
%"class.base::internal::LockImpl" = type { %union.pthread_mutex_t }
%union.pthread_mutex_t = type { %struct.__pthread_mutex_s }
%struct.__pthread_mutex_s = type { i32, i32, i32, i32, i32, i16, i16, %struct.__pthread_internal_list }
%struct.__pthread_internal_list = type { ptr, ptr }

; Function Attrs: mustprogress uwtable
define dso_local void @_ZN4base5debug21GlobalActivityTracker40ReleaseTrackerForCurrentThreadForTestingEv(ptr noundef nonnull align 8 dereferenceable(96) %this) #0 align 2 {
entry:
  %this.addr = alloca ptr, align 8
  %tracker = alloca ptr, align 8
  store ptr %this, ptr %this.addr, align 8
  %this1 = load ptr, ptr %this.addr, align 8
  %this_thread_tracker_ = getelementptr inbounds %"class.base::debug::GlobalActivityTracker", ptr %this1, i32 0, i32 2
  %call = call noundef ptr @_ZNK4base18ThreadLocalStorage4Slot3GetEv(ptr noundef nonnull align 4 dereferenceable(8) %this_thread_tracker_)
  store ptr %call, ptr %tracker, align 8
  %0 = load ptr, ptr %tracker, align 8
  %tobool = icmp ne ptr %0, null
  br i1 %tobool, label %if.then, label %if.end

if.then:                                          ; preds = %entry
  %1 = load ptr, ptr %tracker, align 8
  %isnull = icmp eq ptr %1, null
  br i1 %isnull, label %delete.end, label %delete.notnull

delete.notnull:                                   ; preds = %if.then
  %vtable = load ptr, ptr %1, align 8
  %vfn = getelementptr inbounds ptr, ptr %vtable, i64 1
  %2 = load ptr, ptr %vfn, align 8
  call void %2(ptr noundef nonnull align 8 dereferenceable(30) %1) #12
  br label %delete.end

delete.end:                                       ; preds = %delete.notnull, %if.then
  br label %if.end

if.end:                                           ; preds = %delete.end, %entry
  ret void
}