; Function Attrs: mustprogress uwtable
define dso_local void @_ZN4base5debug21GlobalActivityTracker40ReleaseTrackerForCurrentThreadForTestingEv(ptr noundef nonnull align 8 dereferenceable(96) %this) local_unnamed_addr #1 align 2 {
entry:
  %this_thread_tracker_ = getelementptr inbounds i8, ptr %this, i64 16
  %call = tail call noundef ptr @_ZNK4base18ThreadLocalStorage4Slot3GetEv(ptr noundef nonnull align 4 dereferenceable(8) %this_thread_tracker_)
  %tobool.not = icmp eq ptr %call, null
  br i1 %tobool.not, label %if.end, label %delete.notnull

delete.notnull:                                   ; preds = %entry
  %vtable = load ptr, ptr %call, align 8
  %vfn = getelementptr inbounds i8, ptr %vtable, i64 8
  %0 = load ptr, ptr %vfn, align 8
  tail call void %0(ptr noundef nonnull align 8 dereferenceable(30) %call) #17
  br label %if.end

if.end:                                           ; preds = %delete.notnull, %entry
  ret void
}